target datalayout = "e-m:e-p270:32:32-p271:32:32-p272:64:64-i64:64-i128:128-f80:128-n8:16:32:64-S128"
target triple = "x86_64-unknown-linux-gnu"

%"class.hermes::vm::CompressedPointer" = type { %"class.hermes::vm::BasedPointer" }
%"class.hermes::vm::BasedPointer" = type { i32 }
%"class.std::recursive_mutex" = type { %"class.std::__recursive_mutex_base" }
%"class.std::__recursive_mutex_base" = type { %union.pthread_mutex_t }
%union.pthread_mutex_t = type { %struct.__pthread_mutex_s }
%struct.__pthread_mutex_s = type { i32, i32, i32, i32, i32, i16, i16, %struct.__pthread_internal_list }
%struct.__pthread_internal_list = type { ptr, ptr }
%"class.hermes::vm::GCBase::IDTracker" = type { %"class.std::recursive_mutex", i32, [4 x i8], %"class.llvh::DenseMap", %"class.llvh::DenseMap", %"class.llvh::DenseMap.8", %"class.llvh::DenseMap.11", %"class.llvh::DenseMap", %"class.llvh::DenseMap.14" }
%"class.llvh::DenseMap.8" = type <{ ptr, i32, i32, i32, [4 x i8] }>
%"class.llvh::DenseMap.11" = type <{ ptr, i32, i32, i32, [4 x i8] }>
%"class.llvh::DenseMap" = type <{ ptr, i32, i32, i32, [4 x i8] }>
%"class.llvh::DenseMap.14" = type <{ ptr, i32, i32, i32, [4 x i8] }>
%"class.std::lock_guard" = type { ptr }
%"struct.std::pair" = type { i32, i32 }
%"struct.llvh::detail::DenseMapPair" = type { %"struct.std::pair" }

; Function Attrs: mustprogress nounwind uwtable
define internal noundef i32 @_ZL18__gthread_active_pv() #0 {
entry:
  ret i32 1
}

; Function Attrs: mustprogress nounwind uwtable
define internal noundef i32 @_ZL22__gthread_mutex_unlockP15pthread_mutex_t(ptr noundef %__mutex) #0 {
entry:
  %retval = alloca i32, align 4
  %__mutex.addr = alloca ptr, align 8
  store ptr %__mutex, ptr %__mutex.addr, align 8
  %call = call noundef i32 @_ZL18__gthread_active_pv()
  %tobool = icmp ne i32 %call, 0
  br i1 %tobool, label %if.then, label %if.else

if.then:                                          ; preds = %entry
  %0 = load ptr, ptr %__mutex.addr, align 8
  %call1 = call i32 @pthread_mutex_unlock(ptr noundef %0) #14
  store i32 %call1, ptr %retval, align 4
  br label %return

if.else:                                          ; preds = %entry
  store i32 0, ptr %retval, align 4
  br label %return

return:                                           ; preds = %if.else, %if.then
  %1 = load i32, ptr %retval, align 4
  ret i32 %1
}

; Function Attrs: mustprogress nounwind uwtable
define linkonce_odr hidden noundef i32 @_ZN4llvh12DenseMapInfoIjE12getHashValueERKj(ptr noundef nonnull align 4 dereferenceable(4) %Val) #0 comdat align 2 {
entry:
  %Val.addr = alloca ptr, align 8
  store ptr %Val, ptr %Val.addr, align 8
  %0 = load ptr, ptr %Val.addr, align 8
  %1 = load i32, ptr %0, align 4
  %mul = mul i32 %1, 37
  ret i32 %mul
}

; Function Attrs: mustprogress nounwind uwtable
define linkonce_odr hidden noundef i32 @_ZN4llvh12DenseMapInfoIjE15getTombstoneKeyEv() #0 comdat align 2 {
entry:
  ret i32 -2
}

; Function Attrs: mustprogress nounwind uwtable
define linkonce_odr hidden noundef i32 @_ZN4llvh12DenseMapInfoIjE11getEmptyKeyEv() #0 comdat align 2 {
entry:
  ret i32 -1
}

; Function Attrs: mustprogress nounwind uwtable
define linkonce_odr hidden noundef i32 @_ZNK4llvh8DenseMapIjjNS_12DenseMapInfoIjEENS_6detail12DenseMapPairIjjEEE13getNumBucketsEv(ptr noundef nonnull align 8 dereferenceable(20) %this) #0 comdat align 2 {
entry:
  %this.addr = alloca ptr, align 8
  store ptr %this, ptr %this.addr, align 8
  %this1 = load ptr, ptr %this.addr, align 8
  %NumBuckets = getelementptr inbounds %"class.llvh::DenseMap", ptr %this1, i32 0, i32 3
  %0 = load i32, ptr %NumBuckets, align 8
  ret i32 %0
}

; Function Attrs: mustprogress nounwind uwtable
define linkonce_odr hidden noundef ptr @_ZNK4llvh8DenseMapIjjNS_12DenseMapInfoIjEENS_6detail12DenseMapPairIjjEEE10getBucketsEv(ptr noundef nonnull align 8 dereferenceable(20) %this) #0 comdat align 2 {
entry:
  %this.addr = alloca ptr, align 8
  store ptr %this, ptr %this.addr, align 8
  %this1 = load ptr, ptr %this.addr, align 8
  %Buckets = getelementptr inbounds %"class.llvh::DenseMap", ptr %this1, i32 0, i32 0
  %0 = load ptr, ptr %Buckets, align 8
  ret ptr %0
}

; Function Attrs: mustprogress nounwind uwtable
define internal noundef i32 @_ZL20__gthread_mutex_lockP15pthread_mutex_t(ptr noundef %__mutex) #0 {
entry:
  %retval = alloca i32, align 4
  %__mutex.addr = alloca ptr, align 8
  store ptr %__mutex, ptr %__mutex.addr, align 8
  %call = call noundef i32 @_ZL18__gthread_active_pv()
  %tobool = icmp ne i32 %call, 0
  br i1 %tobool, label %if.then, label %if.else

if.then:                                          ; preds = %entry
  %0 = load ptr, ptr %__mutex.addr, align 8
  %call1 = call i32 @pthread_mutex_lock(ptr noundef %0) #14
  store i32 %call1, ptr %retval, align 4
  br label %return

if.else:                                          ; preds = %entry
  store i32 0, ptr %retval, align 4
  br label %return

return:                                           ; preds = %if.else, %if.then
  %1 = load i32, ptr %retval, align 4
  ret i32 %1
}

; Function Attrs: mustprogress nounwind uwtable
define internal noundef i32 @_ZL32__gthread_recursive_mutex_unlockP15pthread_mutex_t(ptr noundef %__mutex) #0 {
entry:
  %__mutex.addr = alloca ptr, align 8
  store ptr %__mutex, ptr %__mutex.addr, align 8
  %0 = load ptr, ptr %__mutex.addr, align 8
  %call = call noundef i32 @_ZL22__gthread_mutex_unlockP15pthread_mutex_t(ptr noundef %0)
  ret i32 %call
}

; Function Attrs: mustprogress nounwind uwtable
define linkonce_odr hidden noundef zeroext i1 @_ZN4llvh12DenseMapInfoIjE7isEqualERKjS3_(ptr noundef nonnull align 4 dereferenceable(4) %LHS, ptr noundef nonnull align 4 dereferenceable(4) %RHS) #0 comdat align 2 {
entry:
  %LHS.addr = alloca ptr, align 8
  %RHS.addr = alloca ptr, align 8
  store ptr %LHS, ptr %LHS.addr, align 8
  store ptr %RHS, ptr %RHS.addr, align 8
  %0 = load ptr, ptr %LHS.addr, align 8
  %1 = load i32, ptr %0, align 4
  %2 = load ptr, ptr %RHS.addr, align 8
  %3 = load i32, ptr %2, align 4
  %cmp = icmp eq i32 %1, %3
  ret i1 %cmp
}

; Function Attrs: mustprogress nounwind uwtable
define linkonce_odr hidden noundef nonnull align 4 dereferenceable(4) ptr @_ZNK4llvh6detail12DenseMapPairIjjE8getFirstEv(ptr noundef nonnull align 4 dereferenceable(8) %this) #0 comdat align 2 {
entry:
  %this.addr = alloca ptr, align 8
  store ptr %this, ptr %this.addr, align 8
  %this1 = load ptr, ptr %this.addr, align 8
  %first = getelementptr inbounds %"struct.std::pair", ptr %this1, i32 0, i32 0
  ret ptr %first
}

; Function Attrs: mustprogress nounwind uwtable
define linkonce_odr hidden noundef i32 @_ZN4llvh12DenseMapBaseINS_8DenseMapIjjNS_12DenseMapInfoIjEENS_6detail12DenseMapPairIjjEEEEjjS3_S6_E12getHashValueERKj(ptr noundef nonnull align 4 dereferenceable(4) %Val) #0 comdat align 2 {
entry:
  %Val.addr = alloca ptr, align 8
  store ptr %Val, ptr %Val.addr, align 8
  %0 = load ptr, ptr %Val.addr, align 8
  %call = call noundef i32 @_ZN4llvh12DenseMapInfoIjE12getHashValueERKj(ptr noundef nonnull align 4 dereferenceable(4) %0)
  ret i32 %call
}

; Function Attrs: mustprogress nounwind uwtable
define linkonce_odr hidden noundef i32 @_ZN4llvh12DenseMapBaseINS_8DenseMapIjjNS_12DenseMapInfoIjEENS_6detail12DenseMapPairIjjEEEEjjS3_S6_E15getTombstoneKeyEv() #0 comdat align 2 {
entry:
  %call = call noundef i32 @_ZN4llvh12DenseMapInfoIjE15getTombstoneKeyEv()
  ret i32 %call
}

; Function Attrs: mustprogress nounwind uwtable
define linkonce_odr hidden noundef i32 @_ZN4llvh12DenseMapBaseINS_8DenseMapIjjNS_12DenseMapInfoIjEENS_6detail12DenseMapPairIjjEEEEjjS3_S6_E11getEmptyKeyEv() #0 comdat align 2 {
entry:
  %call = call noundef i32 @_ZN4llvh12DenseMapInfoIjE11getEmptyKeyEv()
  ret i32 %call
}

; Function Attrs: mustprogress nounwind uwtable
define linkonce_odr hidden noundef i32 @_ZNK4llvh12DenseMapBaseINS_8DenseMapIjjNS_12DenseMapInfoIjEENS_6detail12DenseMapPairIjjEEEEjjS3_S6_E13getNumBucketsEv(ptr noundef nonnull align 1 dereferenceable(1) %this) #0 comdat align 2 {
entry:
  %this.addr = alloca ptr, align 8
  store ptr %this, ptr %this.addr, align 8
  %this1 = load ptr, ptr %this.addr, align 8
  %call = call noundef i32 @_ZNK4llvh8DenseMapIjjNS_12DenseMapInfoIjEENS_6detail12DenseMapPairIjjEEE13getNumBucketsEv(ptr noundef nonnull align 8 dereferenceable(20) %this1)
  ret i32 %call
}

; Function Attrs: mustprogress nounwind uwtable
define linkonce_odr hidden noundef ptr @_ZNK4llvh12DenseMapBaseINS_8DenseMapIjjNS_12DenseMapInfoIjEENS_6detail12DenseMapPairIjjEEEEjjS3_S6_E10getBucketsEv(ptr noundef nonnull align 1 dereferenceable(1) %this) #0 comdat align 2 {
entry:
  %this.addr = alloca ptr, align 8
  store ptr %this, ptr %this.addr, align 8
  %this1 = load ptr, ptr %this.addr, align 8
  %call = call noundef ptr @_ZNK4llvh8DenseMapIjjNS_12DenseMapInfoIjEENS_6detail12DenseMapPairIjjEEE10getBucketsEv(ptr noundef nonnull align 8 dereferenceable(20) %this1)
  ret ptr %call
}

; Function Attrs: mustprogress nounwind uwtable
define linkonce_odr hidden noundef i32 @_ZNK6hermes2vm12BasedPointer11getRawValueEv(ptr noundef nonnull align 4 dereferenceable(4) %this) #0 comdat align 2 {
entry:
  %this.addr = alloca ptr, align 8
  store ptr %this, ptr %this.addr, align 8
  %this1 = load ptr, ptr %this.addr, align 8
  %raw_ = getelementptr inbounds %"class.hermes::vm::BasedPointer", ptr %this1, i32 0, i32 0
  %0 = load i32, ptr %raw_, align 4
  ret i32 %0
}

; Function Attrs: mustprogress nounwind uwtable
define internal noundef i32 @_ZL30__gthread_recursive_mutex_lockP15pthread_mutex_t(ptr noundef %__mutex) #0 {
entry:
  %__mutex.addr = alloca ptr, align 8
  store ptr %__mutex, ptr %__mutex.addr, align 8
  %0 = load ptr, ptr %__mutex.addr, align 8
  %call = call noundef i32 @_ZL20__gthread_mutex_lockP15pthread_mutex_t(ptr noundef %0)
  ret i32 %call
}

; Function Attrs: mustprogress nounwind uwtable
define linkonce_odr void @_ZNSt15recursive_mutex6unlockEv(ptr noundef nonnull align 8 dereferenceable(40) %this) #0 comdat align 2 {
entry:
  %this.addr = alloca ptr, align 8
  store ptr %this, ptr %this.addr, align 8
  %this1 = load ptr, ptr %this.addr, align 8
  %_M_mutex = getelementptr inbounds %"class.std::__recursive_mutex_base", ptr %this1, i32 0, i32 0
  %call = call noundef i32 @_ZL32__gthread_recursive_mutex_unlockP15pthread_mutex_t(ptr noundef %_M_mutex)
  ret void
}

; Function Attrs: mustprogress nounwind uwtable
define linkonce_odr hidden noundef zeroext i1 @_ZNK4llvh12DenseMapBaseINS_8DenseMapIjjNS_12DenseMapInfoIjEENS_6detail12DenseMapPairIjjEEEEjjS3_S6_E15LookupBucketForIjEEbRKT_RPKS6_(ptr noundef nonnull align 1 dereferenceable(1) %this, ptr noundef nonnull align 4 dereferenceable(4) %Val, ptr noundef nonnull align 8 dereferenceable(8) %FoundBucket) #0 comdat align 2 {
entry:
  %retval = alloca i1, align 1
  %this.addr = alloca ptr, align 8
  %Val.addr = alloca ptr, align 8
  %FoundBucket.addr = alloca ptr, align 8
  %BucketsPtr = alloca ptr, align 8
  %NumBuckets = alloca i32, align 4
  %FoundTombstone = alloca ptr, align 8
  %EmptyKey = alloca i32, align 4
  %TombstoneKey = alloca i32, align 4
  %BucketNo = alloca i32, align 4
  %ProbeAmt = alloca i32, align 4
  %ThisBucket = alloca ptr, align 8
  store ptr %this, ptr %this.addr, align 8
  store ptr %Val, ptr %Val.addr, align 8
  store ptr %FoundBucket, ptr %FoundBucket.addr, align 8
  %this1 = load ptr, ptr %this.addr, align 8
  %call = call noundef ptr @_ZNK4llvh12DenseMapBaseINS_8DenseMapIjjNS_12DenseMapInfoIjEENS_6detail12DenseMapPairIjjEEEEjjS3_S6_E10getBucketsEv(ptr noundef nonnull align 1 dereferenceable(1) %this1)
  store ptr %call, ptr %BucketsPtr, align 8
  %call2 = call noundef i32 @_ZNK4llvh12DenseMapBaseINS_8DenseMapIjjNS_12DenseMapInfoIjEENS_6detail12DenseMapPairIjjEEEEjjS3_S6_E13getNumBucketsEv(ptr noundef nonnull align 1 dereferenceable(1) %this1)
  store i32 %call2, ptr %NumBuckets, align 4
  %0 = load i32, ptr %NumBuckets, align 4
  %cmp = icmp eq i32 %0, 0
  br i1 %cmp, label %if.then, label %if.end

if.then:                                          ; preds = %entry
  %1 = load ptr, ptr %FoundBucket.addr, align 8
  store ptr null, ptr %1, align 8
  store i1 false, ptr %retval, align 1
  br label %return

if.end:                                           ; preds = %entry
  store ptr null, ptr %FoundTombstone, align 8
  %call3 = call noundef i32 @_ZN4llvh12DenseMapBaseINS_8DenseMapIjjNS_12DenseMapInfoIjEENS_6detail12DenseMapPairIjjEEEEjjS3_S6_E11getEmptyKeyEv()
  store i32 %call3, ptr %EmptyKey, align 4
  %call4 = call noundef i32 @_ZN4llvh12DenseMapBaseINS_8DenseMapIjjNS_12DenseMapInfoIjEENS_6detail12DenseMapPairIjjEEEEjjS3_S6_E15getTombstoneKeyEv()
  store i32 %call4, ptr %TombstoneKey, align 4
  %2 = load ptr, ptr %Val.addr, align 8
  %call5 = call noundef i32 @_ZN4llvh12DenseMapBaseINS_8DenseMapIjjNS_12DenseMapInfoIjEENS_6detail12DenseMapPairIjjEEEEjjS3_S6_E12getHashValueERKj(ptr noundef nonnull align 4 dereferenceable(4) %2)
  %3 = load i32, ptr %NumBuckets, align 4
  %sub = sub i32 %3, 1
  %and = and i32 %call5, %sub
  store i32 %and, ptr %BucketNo, align 4
  store i32 1, ptr %ProbeAmt, align 4
  br label %while.body

while.body:                                       ; preds = %if.end18, %if.end
  %4 = load ptr, ptr %BucketsPtr, align 8
  %5 = load i32, ptr %BucketNo, align 4
  %idx.ext = zext i32 %5 to i64
  %add.ptr = getelementptr inbounds %"struct.llvh::detail::DenseMapPair", ptr %4, i64 %idx.ext
  store ptr %add.ptr, ptr %ThisBucket, align 8
  %6 = load ptr, ptr %Val.addr, align 8
  %7 = load ptr, ptr %ThisBucket, align 8
  %call6 = call noundef nonnull align 4 dereferenceable(4) ptr @_ZNK4llvh6detail12DenseMapPairIjjE8getFirstEv(ptr noundef nonnull align 4 dereferenceable(8) %7)
  %call7 = call noundef zeroext i1 @_ZN4llvh12DenseMapInfoIjE7isEqualERKjS3_(ptr noundef nonnull align 4 dereferenceable(4) %6, ptr noundef nonnull align 4 dereferenceable(4) %call6)
  br i1 %call7, label %if.then8, label %if.end9

if.then8:                                         ; preds = %while.body
  %8 = load ptr, ptr %ThisBucket, align 8
  %9 = load ptr, ptr %FoundBucket.addr, align 8
  store ptr %8, ptr %9, align 8
  store i1 true, ptr %retval, align 1
  br label %return

if.end9:                                          ; preds = %while.body
  %10 = load ptr, ptr %ThisBucket, align 8
  %call10 = call noundef nonnull align 4 dereferenceable(4) ptr @_ZNK4llvh6detail12DenseMapPairIjjE8getFirstEv(ptr noundef nonnull align 4 dereferenceable(8) %10)
  %call11 = call noundef zeroext i1 @_ZN4llvh12DenseMapInfoIjE7isEqualERKjS3_(ptr noundef nonnull align 4 dereferenceable(4) %call10, ptr noundef nonnull align 4 dereferenceable(4) %EmptyKey)
  br i1 %call11, label %if.then12, label %if.end13

if.then12:                                        ; preds = %if.end9
  %11 = load ptr, ptr %FoundTombstone, align 8
  %tobool = icmp ne ptr %11, null
  br i1 %tobool, label %cond.true, label %cond.false

cond.true:                                        ; preds = %if.then12
  %12 = load ptr, ptr %FoundTombstone, align 8
  br label %cond.end

cond.false:                                       ; preds = %if.then12
  %13 = load ptr, ptr %ThisBucket, align 8
  br label %cond.end

cond.end:                                         ; preds = %cond.false, %cond.true
  %cond = phi ptr [ %12, %cond.true ], [ %13, %cond.false ]
  %14 = load ptr, ptr %FoundBucket.addr, align 8
  store ptr %cond, ptr %14, align 8
  store i1 false, ptr %retval, align 1
  br label %return

if.end13:                                         ; preds = %if.end9
  %15 = load ptr, ptr %ThisBucket, align 8
  %call14 = call noundef nonnull align 4 dereferenceable(4) ptr @_ZNK4llvh6detail12DenseMapPairIjjE8getFirstEv(ptr noundef nonnull align 4 dereferenceable(8) %15)
  %call15 = call noundef zeroext i1 @_ZN4llvh12DenseMapInfoIjE7isEqualERKjS3_(ptr noundef nonnull align 4 dereferenceable(4) %call14, ptr noundef nonnull align 4 dereferenceable(4) %TombstoneKey)
  br i1 %call15, label %land.lhs.true, label %if.end18

land.lhs.true:                                    ; preds = %if.end13
  %16 = load ptr, ptr %FoundTombstone, align 8
  %tobool16 = icmp ne ptr %16, null
  br i1 %tobool16, label %if.end18, label %if.then17

if.then17:                                        ; preds = %land.lhs.true
  %17 = load ptr, ptr %ThisBucket, align 8
  store ptr %17, ptr %FoundTombstone, align 8
  br label %if.end18

if.end18:                                         ; preds = %if.then17, %land.lhs.true, %if.end13
  %18 = load i32, ptr %ProbeAmt, align 4
  %inc = add i32 %18, 1
  store i32 %inc, ptr %ProbeAmt, align 4
  %19 = load i32, ptr %BucketNo, align 4
  %add = add i32 %19, %18
  store i32 %add, ptr %BucketNo, align 4
  %20 = load i32, ptr %NumBuckets, align 4
  %sub19 = sub i32 %20, 1
  %21 = load i32, ptr %BucketNo, align 4
  %and20 = and i32 %21, %sub19
  store i32 %and20, ptr %BucketNo, align 4
  br label %while.body, !llvm.loop !26

return:                                           ; preds = %cond.end, %if.then8, %if.then
  %22 = load i1, ptr %retval, align 1
  ret i1 %22
}

; Function Attrs: mustprogress nounwind uwtable
define linkonce_odr hidden noundef i32 @_ZN6hermes2vm17CompressedPointer16storageTypeToRawENS0_12BasedPointerE(i32 %st.coerce) #0 comdat align 2 {
entry:
  %st = alloca %"class.hermes::vm::BasedPointer", align 4
  %coerce.dive = getelementptr inbounds %"class.hermes::vm::BasedPointer", ptr %st, i32 0, i32 0
  store i32 %st.coerce, ptr %coerce.dive, align 4
  %call = call noundef i32 @_ZNK6hermes2vm12BasedPointer11getRawValueEv(ptr noundef nonnull align 4 dereferenceable(4) %st)
  ret i32 %call
}

; Function Attrs: mustprogress nounwind uwtable
define linkonce_odr void @_ZNSt15recursive_mutex4lockEv(ptr noundef nonnull align 8 dereferenceable(40) %this) #0 comdat align 2 {
entry:
  %this.addr = alloca ptr, align 8
  %__e = alloca i32, align 4
  store ptr %this, ptr %this.addr, align 8
  %this1 = load ptr, ptr %this.addr, align 8
  %_M_mutex = getelementptr inbounds %"class.std::__recursive_mutex_base", ptr %this1, i32 0, i32 0
  %call = call noundef i32 @_ZL30__gthread_recursive_mutex_lockP15pthread_mutex_t(ptr noundef %_M_mutex)
  store i32 %call, ptr %__e, align 4
  %0 = load i32, ptr %__e, align 4
  %tobool = icmp ne i32 %0, 0
  br i1 %tobool, label %if.then, label %if.end

if.then:                                          ; preds = %entry
  %1 = load i32, ptr %__e, align 4
  call void @_ZSt20__throw_system_errori(i32 noundef %1) #15
  unreachable

if.end:                                           ; preds = %entry
  ret void
}

; Function Attrs: mustprogress nounwind uwtable
define linkonce_odr void @_ZNSt10lock_guardISt15recursive_mutexED2Ev(ptr noundef nonnull align 8 dereferenceable(8) %this) unnamed_addr #0 comdat align 2 {
entry:
  %this.addr = alloca ptr, align 8
  store ptr %this, ptr %this.addr, align 8
  %this1 = load ptr, ptr %this.addr, align 8
  %_M_device = getelementptr inbounds %"class.std::lock_guard", ptr %this1, i32 0, i32 0
  %0 = load ptr, ptr %_M_device, align 8
  call void @_ZNSt15recursive_mutex6unlockEv(ptr noundef nonnull align 8 dereferenceable(40) %0)
  ret void
}

; Function Attrs: mustprogress nounwind uwtable
define linkonce_odr hidden noundef i32 @_ZNK4llvh12DenseMapBaseINS_8DenseMapIjjNS_12DenseMapInfoIjEENS_6detail12DenseMapPairIjjEEEEjjS3_S6_E5countERKj(ptr noundef nonnull align 1 dereferenceable(1) %this, ptr noundef nonnull align 4 dereferenceable(4) %Val) #0 comdat align 2 {
entry:
  %this.addr = alloca ptr, align 8
  %Val.addr = alloca ptr, align 8
  %TheBucket = alloca ptr, align 8
  store ptr %this, ptr %this.addr, align 8
  store ptr %Val, ptr %Val.addr, align 8
  %this1 = load ptr, ptr %this.addr, align 8
  %0 = load ptr, ptr %Val.addr, align 8
  %call = call noundef zeroext i1 @_ZNK4llvh12DenseMapBaseINS_8DenseMapIjjNS_12DenseMapInfoIjEENS_6detail12DenseMapPairIjjEEEEjjS3_S6_E15LookupBucketForIjEEbRKT_RPKS6_(ptr noundef nonnull align 1 dereferenceable(1) %this1, ptr noundef nonnull align 4 dereferenceable(4) %0, ptr noundef nonnull align 8 dereferenceable(8) %TheBucket)
  %cond = select i1 %call, i32 1, i32 0
  ret i32 %cond
}

; Function Attrs: mustprogress nounwind uwtable
define linkonce_odr hidden noundef i32 @_ZNK6hermes2vm17CompressedPointer6getRawEv(ptr noundef nonnull align 4 dereferenceable(4) %this) #0 comdat align 2 {
entry:
  %this.addr = alloca ptr, align 8
  %agg.tmp = alloca %"class.hermes::vm::BasedPointer", align 4
  store ptr %this, ptr %this.addr, align 8
  %this1 = load ptr, ptr %this.addr, align 8
  %ptr_ = getelementptr inbounds %"class.hermes::vm::CompressedPointer", ptr %this1, i32 0, i32 0
  call void @llvm.memcpy.p0.p0.i64(ptr align 4 %agg.tmp, ptr align 4 %ptr_, i64 4, i1 false)
  %coerce.dive = getelementptr inbounds %"class.hermes::vm::BasedPointer", ptr %agg.tmp, i32 0, i32 0
  %0 = load i32, ptr %coerce.dive, align 4
  %call = call noundef i32 @_ZN6hermes2vm17CompressedPointer16storageTypeToRawENS0_12BasedPointerE(i32 %0)
  ret i32 %call
}

; Function Attrs: mustprogress nounwind uwtable
define linkonce_odr void @_ZNSt10lock_guardISt15recursive_mutexEC2ERS0_(ptr noundef nonnull align 8 dereferenceable(8) %this, ptr noundef nonnull align 8 dereferenceable(40) %__m) unnamed_addr #0 comdat align 2 {
entry:
  %this.addr = alloca ptr, align 8
  %__m.addr = alloca ptr, align 8
  store ptr %this, ptr %this.addr, align 8
  store ptr %__m, ptr %__m.addr, align 8
  %this1 = load ptr, ptr %this.addr, align 8
  %_M_device = getelementptr inbounds %"class.std::lock_guard", ptr %this1, i32 0, i32 0
  %0 = load ptr, ptr %__m.addr, align 8
  store ptr %0, ptr %_M_device, align 8
  %_M_device2 = getelementptr inbounds %"class.std::lock_guard", ptr %this1, i32 0, i32 0
  %1 = load ptr, ptr %_M_device2, align 8
  call void @_ZNSt15recursive_mutex4lockEv(ptr noundef nonnull align 8 dereferenceable(40) %1)
  ret void
}

; Function Attrs: mustprogress nounwind uwtable
define hidden noundef zeroext i1 @_ZN6hermes2vm6GCBase9IDTracker11hasObjectIDENS0_17CompressedPointerE(ptr noundef nonnull align 8 dereferenceable(192) %this, i32 %cell.coerce) #0 align 2 {
entry:
  %cell = alloca %"class.hermes::vm::CompressedPointer", align 4
  %this.addr = alloca ptr, align 8
  %lk = alloca %"class.std::lock_guard", align 8
  %ref.tmp = alloca i32, align 4
  %coerce.dive = getelementptr inbounds %"class.hermes::vm::CompressedPointer", ptr %cell, i32 0, i32 0
  %coerce.dive1 = getelementptr inbounds %"class.hermes::vm::BasedPointer", ptr %coerce.dive, i32 0, i32 0
  store i32 %cell.coerce, ptr %coerce.dive1, align 4
  store ptr %this, ptr %this.addr, align 8
  %this2 = load ptr, ptr %this.addr, align 8
  %mtx_ = getelementptr inbounds %"class.hermes::vm::GCBase::IDTracker", ptr %this2, i32 0, i32 0
  call void @_ZNSt10lock_guardISt15recursive_mutexEC2ERS0_(ptr noundef nonnull align 8 dereferenceable(8) %lk, ptr noundef nonnull align 8 dereferenceable(40) %mtx_)
  %objectIDMap_ = getelementptr inbounds %"class.hermes::vm::GCBase::IDTracker", ptr %this2, i32 0, i32 3
  %call = call noundef i32 @_ZNK6hermes2vm17CompressedPointer6getRawEv(ptr noundef nonnull align 4 dereferenceable(4) %cell)
  store i32 %call, ptr %ref.tmp, align 4
  %call3 = call noundef i32 @_ZNK4llvh12DenseMapBaseINS_8DenseMapIjjNS_12DenseMapInfoIjEENS_6detail12DenseMapPairIjjEEEEjjS3_S6_E5countERKj(ptr noundef nonnull align 1 dereferenceable(1) %objectIDMap_, ptr noundef nonnull align 4 dereferenceable(4) %ref.tmp)
  %tobool = icmp ne i32 %call3, 0
  call void @_ZNSt10lock_guardISt15recursive_mutexED2Ev(ptr noundef nonnull align 8 dereferenceable(8) %lk) #14
  ret i1 %tobool
}