; Function Attrs: mustprogress nounwind uwtable
define hidden noundef zeroext i1 @_ZN6hermes2vm6GCBase9IDTracker11hasObjectIDENS0_17CompressedPointerE(ptr noundef nonnull align 8 dereferenceable(192) %this, i32 %cell.coerce) local_unnamed_addr #0 align 2 {
entry:
  %call1.i.i.i.i = tail call noundef i32 @pthread_mutex_lock(ptr noundef nonnull %this) #27
  %tobool.not.i.i = icmp eq i32 %call1.i.i.i.i, 0
  br i1 %tobool.not.i.i, label %_ZNSt10lock_guardISt15recursive_mutexEC2ERS0_.exit, label %if.then.i.i

if.then.i.i:                                      ; preds = %entry
  tail call void @_ZSt20__throw_system_errori(i32 noundef %call1.i.i.i.i) #29
  unreachable

_ZNSt10lock_guardISt15recursive_mutexEC2ERS0_.exit: ; preds = %entry
  %objectIDMap_ = getelementptr inbounds i8, ptr %this, i64 48
  %0 = load ptr, ptr %objectIDMap_, align 8
  %NumBuckets.i.i.i.i = getelementptr inbounds i8, ptr %this, i64 64
  %1 = load i32, ptr %NumBuckets.i.i.i.i, align 8
  %cmp.i.i = icmp eq i32 %1, 0
  br i1 %cmp.i.i, label %_ZNK4llvh12DenseMapBaseINS_8DenseMapIjjNS_12DenseMapInfoIjEENS_6detail12DenseMapPairIjjEEEEjjS3_S6_E5countERKj.exit, label %if.end.i.i

if.end.i.i:                                       ; preds = %_ZNSt10lock_guardISt15recursive_mutexEC2ERS0_.exit
  %mul.i.i.i.i = mul i32 %cell.coerce, 37
  %sub.i.i = add i32 %1, -1
  %BucketNo.019.i.i = and i32 %sub.i.i, %mul.i.i.i.i
  %idx.ext20.i.i = zext i32 %BucketNo.019.i.i to i64
  %add.ptr21.i.i = getelementptr inbounds %"struct.llvh::detail::DenseMapPair", ptr %0, i64 %idx.ext20.i.i
  %2 = load i32, ptr %add.ptr21.i.i, align 4
  %cmp.i22.i.i = icmp eq i32 %2, %cell.coerce
  br i1 %cmp.i22.i.i, label %_ZNK4llvh12DenseMapBaseINS_8DenseMapIjjNS_12DenseMapInfoIjEENS_6detail12DenseMapPairIjjEEEEjjS3_S6_E5countERKj.exit, label %if.end9.i.i

if.end9.i.i:                                      ; preds = %if.end.i.i, %if.end13.i.i
  %3 = phi i32 [ %4, %if.end13.i.i ], [ %2, %if.end.i.i ]
  %BucketNo.025.i.i = phi i32 [ %BucketNo.0.i.i, %if.end13.i.i ], [ %BucketNo.019.i.i, %if.end.i.i ]
  %ProbeAmt.024.i.i = phi i32 [ %inc.i.i, %if.end13.i.i ], [ 1, %if.end.i.i ]
  %cmp.i15.i.i.not = icmp ne i32 %3, -1
  br i1 %cmp.i15.i.i.not, label %if.end13.i.i, label %_ZNK4llvh12DenseMapBaseINS_8DenseMapIjjNS_12DenseMapInfoIjEENS_6detail12DenseMapPairIjjEEEEjjS3_S6_E5countERKj.exit

if.end13.i.i:                                     ; preds = %if.end9.i.i
  %inc.i.i = add i32 %ProbeAmt.024.i.i, 1
  %add.i.i = add i32 %ProbeAmt.024.i.i, %BucketNo.025.i.i
  %BucketNo.0.i.i = and i32 %add.i.i, %sub.i.i
  %idx.ext.i.i = zext i32 %BucketNo.0.i.i to i64
  %add.ptr.i.i = getelementptr inbounds %"struct.llvh::detail::DenseMapPair", ptr %0, i64 %idx.ext.i.i
  %4 = load i32, ptr %add.ptr.i.i, align 4
  %cmp.i.i.i = icmp eq i32 %4, %cell.coerce
  br i1 %cmp.i.i.i, label %_ZNK4llvh12DenseMapBaseINS_8DenseMapIjjNS_12DenseMapInfoIjEENS_6detail12DenseMapPairIjjEEEEjjS3_S6_E5countERKj.exit, label %if.end9.i.i, !llvm.loop !28

_ZNK4llvh12DenseMapBaseINS_8DenseMapIjjNS_12DenseMapInfoIjEENS_6detail12DenseMapPairIjjEEEEjjS3_S6_E5countERKj.exit: ; preds = %if.end9.i.i, %if.end13.i.i, %_ZNSt10lock_guardISt15recursive_mutexEC2ERS0_.exit, %if.end.i.i
  %tobool = phi i1 [ false, %_ZNSt10lock_guardISt15recursive_mutexEC2ERS0_.exit ], [ true, %if.end.i.i ], [ %cmp.i15.i.i.not, %if.end13.i.i ], [ %cmp.i15.i.i.not, %if.end9.i.i ]
  %call1.i.i.i.i1 = tail call noundef i32 @pthread_mutex_unlock(ptr noundef nonnull %this) #27
  ret i1 %tobool
}